Certificate:
    Data:
        Version: 3 (0x2)
        Serial Number: 1 (0x1)
    Signature Algorithm: sha256WithRSAEncryption
        Issuer: CN=devcert
        Validity
            Not Before: Apr 21 18:42:54 2020 GMT
            Not After : Jul 25 18:42:54 2022 GMT
        Subject: CN=localhost
        Subject Public Key Info:
            Public Key Algorithm: rsaEncryption
                Public-Key: (2048 bit)
                Modulus:
                    00:ae:f0:1e:ba:10:a5:30:89:2e:42:e8:92:00:8e:
                    1f:f4:3f:c3:d6:b3:06:de:de:09:37:65:d3:ce:4b:
                    64:60:2f:b5:2d:e0:8f:14:70:a9:61:34:6b:11:73:
                    53:79:e6:b6:83:a0:57:68:9f:a0:a8:c8:71:01:73:
                    63:c9:59:13:44:ba:72:61:ef:b6:47:3f:86:af:0e:
                    45:74:f4:13:b6:ff:d1:67:db:21:14:03:af:3f:5a:
                    c5:58:e3:c6:6b:54:c9:8a:f8:ec:ef:f7:15:69:26:
                    3d:9e:14:12:88:68:3b:72:0b:e1:81:9b:f2:34:62:
                    bc:6d:e4:55:8d:e1:00:72:fb:54:b8:97:d7:bd:46:
                    91:b8:23:b6:14:c0:b0:16:72:8e:df:b8:57:96:f6:
                    10:e2:94:81:b4:d3:65:b6:d7:d1:b7:7c:17:5c:ba:
                    45:0e:6c:8c:19:97:63:41:83:dc:16:52:99:f8:df:
                    20:dc:b4:9a:85:8d:a8:e0:a6:86:97:1e:68:02:b8:
                    5d:b3:b2:07:b0:d8:cb:00:e8:5e:6b:85:b8:8c:fe:
                    5a:11:25:42:eb:c6:f4:7b:d9:30:7d:27:a6:59:dd:
                    e2:de:0b:8d:d8:4d:83:c4:b5:57:22:a4:79:f0:c5:
                    06:a5:02:2a:0e:4c:9d:dc:55:44:5d:21:98:2e:8b:
                    ff:25
                Exponent: 65537 (0x10001)
        X509v3 extensions:
            X509v3 Basic Constraints: critical
                CA:FALSE
            X509v3 Subject Key Identifier: 
                25:6E:68:7F:08:62:31:95:48:D5:D8:FF:21:7B:E6:ED:B1:5D:7D:3C
            X509v3 Authority Key Identifier: 
                keyid:E1:00:D2:02:25:91:C6:AB:96:EA:93:91:01:3E:DD:8E:A0:B3:4F:03
                DirName:/CN=devcert
                serial:BC:76:DB:13:87:B8:00:7C

            X509v3 Key Usage: critical
                Digital Signature, Key Encipherment
            X509v3 Extended Key Usage: 
                TLS Web Server Authentication
            X509v3 Subject Alternative Name: 
                DNS:localhost, DNS:*.localhost
    Signature Algorithm: sha256WithRSAEncryption
         82:36:05:c8:2a:76:e1:b9:aa:51:cf:1d:6e:cc:71:19:63:2d:
         86:73:a6:7f:34:d1:ef:88:d0:dc:2a:ae:29:90:08:bb:32:3b:
         95:a6:2f:90:5e:e5:a3:7d:25:97:6d:b7:36:69:25:6c:fc:9e:
         1e:49:cc:3a:51:62:70:64:6b:17:a3:dd:98:ec:b4:8c:4a:24:
         88:1b:ac:2c:f9:73:c4:93:f2:f0:15:66:01:db:fe:17:0f:2f:
         5f:15:15:f1:88:46:41:a5:b3:cd:e5:59:c7:46:d0:d3:81:19:
         34:82:d4:a0:2f:a7:25:62:f4:9a:59:3b:d2:c9:de:18:6f:2a:
         7d:db:5f:63:ee:80:5b:e8:0c:59:9b:52:f1:60:95:28:05:31:
         05:b7:87:4f:ba:d7:9d:5e:ba:5a:04:39:b3:19:17:db:e5:62:
         d4:43:f1:19:bb:b5:fa:8f:09:d7:85:c1:8e:30:83:76:04:88:
         14:8c:c0:a2:28:b2:73:5d:2f:a9:69:43:58:f2:86:39:c3:e7:
         c4:9a:1d:fc:df:47:1d:7b:9f:a3:11:fc:59:f8:4c:0b:33:fb:
         1f:76:87:50:00:56:b3:33:81:ea:d4:ab:d9:ae:82:1d:db:3f:
         96:77:b2:fb:04:ab:8b:1b:1c:ff:db:2b:38:cd:f3:0c:81:6a:
         56:28:cb:a3
-----BEGIN CERTIFICATE-----
MIIDXjCCAkagAwIBAgIBATANBgkqhkiG9w0BAQsFADASMRAwDgYDVQQDDAdkZXZj
ZXJ0MB4XDTIwMDQyMTE4NDI1NFoXDTIyMDcyNTE4NDI1NFowFDESMBAGA1UEAwwJ
bG9jYWxob3N0MIIBIjANBgkqhkiG9w0BAQEFAAOCAQ8AMIIBCgKCAQEArvAeuhCl
MIkuQuiSAI4f9D/D1rMG3t4JN2XTzktkYC+1LeCPFHCpYTRrEXNTeea2g6BXaJ+g
qMhxAXNjyVkTRLpyYe+2Rz+Grw5FdPQTtv/RZ9shFAOvP1rFWOPGa1TJivjs7/cV
aSY9nhQSiGg7cgvhgZvyNGK8beRVjeEAcvtUuJfXvUaRuCO2FMCwFnKO37hXlvYQ
4pSBtNNlttfRt3wXXLpFDmyMGZdjQYPcFlKZ+N8g3LSahY2o4KaGlx5oArhds7IH
sNjLAOhea4W4jP5aESVC68b0e9kwfSemWd3i3guN2E2DxLVXIqR58MUGpQIqDkyd
3FVEXSGYLov/JQIDAQABo4G8MIG5MAwGA1UdEwEB/wQCMAAwHQYDVR0OBBYEFCVu
aH8IYjGVSNXY/yF75u2xXX08MEIGA1UdIwQ7MDmAFOEA0gIlkcarluqTkQE+3Y6g
s08DoRakFDASMRAwDgYDVQQDDAdkZXZjZXJ0ggkAvHbbE4e4AHwwDgYDVR0PAQH/
BAQDAgWgMBMGA1UdJQQMMAoGCCsGAQUFBwMBMCEGA1UdEQQaMBiCCWxvY2FsaG9z
dIILKi5sb2NhbGhvc3QwDQYJKoZIhvcNAQELBQADggEBAII2BcgqduG5qlHPHW7M
cRljLYZzpn800e+I0NwqrimQCLsyO5WmL5Be5aN9JZdttzZpJWz8nh5JzDpRYnBk
axej3ZjstIxKJIgbrCz5c8ST8vAVZgHb/hcPL18VFfGIRkGls83lWcdG0NOBGTSC
1KAvpyVi9JpZO9LJ3hhvKn3bX2PugFvoDFmbUvFglSgFMQW3h0+6151euloEObMZ
F9vlYtRD8Rm7tfqPCdeFwY4wg3YEiBSMwKIosnNdL6lpQ1jyhjnD58SaHfzfRx17
n6MR/Fn4TAsz+x92h1AAVrMzgerUq9mugh3bP5Z3svsEq4sbHP/bKzjN8wyBalYo
y6M=
-----END CERTIFICATE-----
